target datalayout = "e-m:e-p270:32:32-p271:32:32-p272:64:64-i64:64-i128:128-f80:128-n8:16:32:64-S128"
target triple = "x86_64-pc-linux-gnu"

@.str.2 = private unnamed_addr constant [32 x i8] c"../openssl/test/dtls_mtu_test.c\00", align 1
@.str.3 = private unnamed_addr constant [33 x i8] c"ctx = SSL_CTX_new(DTLS_method())\00", align 1
@.str.4 = private unnamed_addr constant [36 x i8] c"SSL_CTX_set_cipher_list(ctx, \22PSK\22)\00", align 1
@.str.5 = private unnamed_addr constant [4 x i8] c"PSK\00", align 1
@.str.6 = private unnamed_addr constant [5 x i8] c"PSK-\00", align 1
@.str.7 = private unnamed_addr constant [36 x i8] c"ret = mtu_test(ctx, cipher_name, 0)\00", align 1
@.str.8 = private unnamed_addr constant [2 x i8] c"0\00", align 1
@.str.9 = private unnamed_addr constant [6 x i8] c"%s OK\00", align 1
@.str.10 = private unnamed_addr constant [36 x i8] c"ret = mtu_test(ctx, cipher_name, 1)\00", align 1
@.str.11 = private unnamed_addr constant [18 x i8] c"%s without EtM OK\00", align 1

; Function Attrs: inlinehint nounwind uwtable
define internal ptr @ossl_check_const_SSL_CIPHER_sk_type(ptr noundef %0) #3 {
  %2 = alloca ptr, align 8
  store ptr %0, ptr %2, align 8, !tbaa !11
  %3 = load ptr, ptr %2, align 8, !tbaa !11
  ret ptr %3
}

; Function Attrs: nounwind uwtable
define internal i32 @run_mtu_tests() #0 {
  %1 = alloca ptr, align 8
  %2 = alloca ptr, align 8
  %3 = alloca i32, align 4
  %4 = alloca i32, align 4
  %5 = alloca ptr, align 8
  %6 = alloca ptr, align 8
  %7 = alloca i32, align 4
  call void @llvm.lifetime.start.p0(i64 8, ptr %1) #6
  store ptr null, ptr %1, align 8, !tbaa !4
  call void @llvm.lifetime.start.p0(i64 8, ptr %2) #6
  call void @llvm.lifetime.start.p0(i64 4, ptr %3) #6
  call void @llvm.lifetime.start.p0(i64 4, ptr %4) #6
  store i32 0, ptr %4, align 4, !tbaa !9
  %8 = call ptr @DTLS_method()
  %9 = call ptr @SSL_CTX_new(ptr noundef %8)
  store ptr %9, ptr %1, align 8, !tbaa !4
  %10 = call i32 @test_ptr(ptr noundef @.str.2, i32 noundef 154, ptr noundef @.str.3, ptr noundef %9)
  %11 = icmp ne i32 %10, 0
  br i1 %11, label %13, label %12

12:                                               ; preds = %0
  br label %72

13:                                               ; preds = %0
  %14 = load ptr, ptr %1, align 8, !tbaa !4
  call void @SSL_CTX_set_psk_server_callback(ptr noundef %14, ptr noundef @srvr_psk_callback)
  %15 = load ptr, ptr %1, align 8, !tbaa !4
  call void @SSL_CTX_set_psk_client_callback(ptr noundef %15, ptr noundef @clnt_psk_callback)
  %16 = load ptr, ptr %1, align 8, !tbaa !4
  call void @SSL_CTX_set_security_level(ptr noundef %16, i32 noundef 0)
  %17 = load ptr, ptr %1, align 8, !tbaa !4
  %18 = call i32 @SSL_CTX_set_cipher_list(ptr noundef %17, ptr noundef @.str.5)
  %19 = icmp ne i32 %18, 0
  %20 = zext i1 %19 to i32
  %21 = call i32 @test_true(ptr noundef @.str.2, i32 noundef 166, ptr noundef @.str.4, i32 noundef %20)
  %22 = icmp ne i32 %21, 0
  br i1 %22, label %24, label %23

23:                                               ; preds = %13
  br label %72

24:                                               ; preds = %13
  %25 = load ptr, ptr %1, align 8, !tbaa !4
  %26 = call ptr @SSL_CTX_get_ciphers(ptr noundef %25)
  store ptr %26, ptr %2, align 8, !tbaa !11
  store i32 0, ptr %3, align 4, !tbaa !9
  br label %27

27:                                               ; preds = %68, %24
  %28 = load i32, ptr %3, align 4, !tbaa !9
  %29 = load ptr, ptr %2, align 8, !tbaa !11
  %30 = call ptr @ossl_check_const_SSL_CIPHER_sk_type(ptr noundef %29)
  %31 = call i32 @OPENSSL_sk_num(ptr noundef %30)
  %32 = icmp slt i32 %28, %31
  br i1 %32, label %33, label %71

33:                                               ; preds = %27
  call void @llvm.lifetime.start.p0(i64 8, ptr %5) #6
  %34 = load ptr, ptr %2, align 8, !tbaa !11
  %35 = call ptr @ossl_check_const_SSL_CIPHER_sk_type(ptr noundef %34)
  %36 = load i32, ptr %3, align 4, !tbaa !9
  %37 = call ptr @OPENSSL_sk_value(ptr noundef %35, i32 noundef %36)
  store ptr %37, ptr %5, align 8, !tbaa !13
  call void @llvm.lifetime.start.p0(i64 8, ptr %6) #6
  %38 = load ptr, ptr %5, align 8, !tbaa !13
  %39 = call ptr @SSL_CIPHER_get_name(ptr noundef %38)
  store ptr %39, ptr %6, align 8, !tbaa !15
  %40 = load ptr, ptr %6, align 8, !tbaa !15
  %41 = call i32 @strncmp(ptr noundef %40, ptr noundef @.str.6, i64 noundef 4) #7
  %42 = icmp eq i32 %41, 0
  br i1 %42, label %44, label %43

43:                                               ; preds = %33
  store i32 5, ptr %7, align 4
  br label %65

44:                                               ; preds = %33
  %45 = load ptr, ptr %1, align 8, !tbaa !4
  %46 = load ptr, ptr %6, align 8, !tbaa !15
  %47 = call i32 @mtu_test(ptr noundef %45, ptr noundef %46, i32 noundef 0)
  store i32 %47, ptr %4, align 4, !tbaa !9
  %48 = call i32 @test_int_gt(ptr noundef @.str.2, i32 noundef 178, ptr noundef @.str.7, ptr noundef @.str.8, i32 noundef %47, i32 noundef 0)
  %49 = icmp ne i32 %48, 0
  br i1 %49, label %51, label %50

50:                                               ; preds = %44
  store i32 3, ptr %7, align 4
  br label %65

51:                                               ; preds = %44
  %52 = load ptr, ptr %6, align 8, !tbaa !15
  call void (ptr, i32, ptr, ...) @test_info(ptr noundef @.str.2, i32 noundef 180, ptr noundef @.str.9, ptr noundef %52)
  %53 = load i32, ptr %4, align 4, !tbaa !9
  %54 = icmp eq i32 %53, 1
  br i1 %54, label %55, label %56

55:                                               ; preds = %51
  store i32 5, ptr %7, align 4
  br label %65

56:                                               ; preds = %51
  %57 = load ptr, ptr %1, align 8, !tbaa !4
  %58 = load ptr, ptr %6, align 8, !tbaa !15
  %59 = call i32 @mtu_test(ptr noundef %57, ptr noundef %58, i32 noundef 1)
  store i32 %59, ptr %4, align 4, !tbaa !9
  %60 = call i32 @test_int_gt(ptr noundef @.str.2, i32 noundef 185, ptr noundef @.str.10, ptr noundef @.str.8, i32 noundef %59, i32 noundef 0)
  %61 = icmp ne i32 %60, 0
  br i1 %61, label %63, label %62

62:                                               ; preds = %56
  store i32 3, ptr %7, align 4
  br label %65

63:                                               ; preds = %56
  %64 = load ptr, ptr %6, align 8, !tbaa !15
  call void (ptr, i32, ptr, ...) @test_info(ptr noundef @.str.2, i32 noundef 187, ptr noundef @.str.11, ptr noundef %64)
  store i32 0, ptr %7, align 4
  br label %65

65:                                               ; preds = %63, %62, %55, %50, %43
  call void @llvm.lifetime.end.p0(i64 8, ptr %6) #6
  call void @llvm.lifetime.end.p0(i64 8, ptr %5) #6
  %66 = load i32, ptr %7, align 4
  switch i32 %66, label %75 [
    i32 0, label %67
    i32 5, label %68
    i32 3, label %71
  ]

67:                                               ; preds = %65
  br label %68

68:                                               ; preds = %67, %65
  %69 = load i32, ptr %3, align 4, !tbaa !9
  %70 = add nsw i32 %69, 1
  store i32 %70, ptr %3, align 4, !tbaa !9
  br label %27, !llvm.loop !17

71:                                               ; preds = %65, %27
  br label %72

72:                                               ; preds = %71, %23, %12
  %73 = load ptr, ptr %1, align 8, !tbaa !4
  call void @SSL_CTX_free(ptr noundef %73)
  %74 = load i32, ptr %4, align 4, !tbaa !9
  store i32 1, ptr %7, align 4
  call void @llvm.lifetime.end.p0(i64 4, ptr %4) #6
  call void @llvm.lifetime.end.p0(i64 4, ptr %3) #6
  call void @llvm.lifetime.end.p0(i64 8, ptr %2) #6
  call void @llvm.lifetime.end.p0(i64 8, ptr %1) #6
  ret i32 %74

75:                                               ; preds = %65
  unreachable
}