; Function Attrs: nounwind uwtable
define internal range(i32 0, 3) i32 @run_mtu_tests() #0 {
  %1 = tail call ptr @DTLS_method() #7
  %2 = tail call ptr @SSL_CTX_new(ptr noundef %1) #7
  %3 = tail call i32 @test_ptr(ptr noundef nonnull @.str.2, i32 noundef 154, ptr noundef nonnull @.str.3, ptr noundef %2) #7
  %.not = icmp eq i32 %3, 0
  br i1 %.not, label %.loopexit, label %4

4:                                                ; preds = %0
  tail call void @SSL_CTX_set_psk_server_callback(ptr noundef %2, ptr noundef nonnull @srvr_psk_callback) #7
  tail call void @SSL_CTX_set_psk_client_callback(ptr noundef %2, ptr noundef nonnull @clnt_psk_callback) #7
  tail call void @SSL_CTX_set_security_level(ptr noundef %2, i32 noundef 0) #7
  %5 = tail call i32 @SSL_CTX_set_cipher_list(ptr noundef %2, ptr noundef nonnull @.str.5) #7
  %6 = icmp ne i32 %5, 0
  %7 = zext i1 %6 to i32
  %8 = tail call i32 @test_true(ptr noundef nonnull @.str.2, i32 noundef 166, ptr noundef nonnull @.str.4, i32 noundef %7) #7
  %.not24 = icmp eq i32 %8, 0
  br i1 %.not24, label %.loopexit, label %9

9:                                                ; preds = %4
  %10 = tail call ptr @SSL_CTX_get_ciphers(ptr noundef %2) #7
  %11 = tail call i32 @OPENSSL_sk_num(ptr noundef %10) #7
  %12 = icmp sgt i32 %11, 0
  br i1 %12, label %.lr.ph, label %.loopexit

.lr.ph:                                           ; preds = %9, %26
  %.02133 = phi i32 [ %27, %26 ], [ 0, %9 ]
  %.132 = phi i32 [ %.2.ph, %26 ], [ 0, %9 ]
  %13 = tail call ptr @OPENSSL_sk_value(ptr noundef %10, i32 noundef %.02133) #7
  %14 = tail call ptr @SSL_CIPHER_get_name(ptr noundef %13) #7
  %15 = tail call i32 @strncmp(ptr noundef nonnull dereferenceable(1) %14, ptr noundef nonnull dereferenceable(5) @.str.6, i64 noundef 4) #8
  %16 = icmp eq i32 %15, 0
  br i1 %16, label %17, label %26

17:                                               ; preds = %.lr.ph
  %18 = tail call fastcc i32 @mtu_test(ptr noundef %2, ptr noundef nonnull %14, i32 noundef 0)
  %19 = tail call i32 @test_int_gt(ptr noundef nonnull @.str.2, i32 noundef 178, ptr noundef nonnull @.str.7, ptr noundef nonnull @.str.8, i32 noundef %18, i32 noundef 0) #7
  %.not25 = icmp eq i32 %19, 0
  br i1 %.not25, label %.loopexit, label %20

20:                                               ; preds = %17
  tail call void (ptr, i32, ptr, ...) @test_info(ptr noundef nonnull @.str.2, i32 noundef 180, ptr noundef nonnull @.str.9, ptr noundef nonnull %14) #7
  %21 = icmp eq i32 %18, 1
  br i1 %21, label %26, label %22

22:                                               ; preds = %20
  %23 = tail call fastcc i32 @mtu_test(ptr noundef %2, ptr noundef nonnull %14, i32 noundef 1)
  %24 = tail call i32 @test_int_gt(ptr noundef nonnull @.str.2, i32 noundef 185, ptr noundef nonnull @.str.10, ptr noundef nonnull @.str.8, i32 noundef %23, i32 noundef 0) #7
  %.not26 = icmp eq i32 %24, 0
  br i1 %.not26, label %.loopexit, label %25

25:                                               ; preds = %22
  tail call void (ptr, i32, ptr, ...) @test_info(ptr noundef nonnull @.str.2, i32 noundef 187, ptr noundef nonnull @.str.11, ptr noundef nonnull %14) #7
  br label %26

26:                                               ; preds = %25, %.lr.ph, %20
  %.2.ph = phi i32 [ 1, %20 ], [ %.132, %.lr.ph ], [ %23, %25 ]
  %27 = add nuw nsw i32 %.02133, 1
  %28 = tail call i32 @OPENSSL_sk_num(ptr noundef %10) #7
  %29 = icmp slt i32 %27, %28
  br i1 %29, label %.lr.ph, label %.loopexit, !llvm.loop !4

.loopexit:                                        ; preds = %26, %22, %17, %9, %4, %0
  %.022 = phi i32 [ 0, %4 ], [ 0, %0 ], [ 0, %9 ], [ %.2.ph, %26 ], [ %23, %22 ], [ %18, %17 ]
  tail call void @SSL_CTX_free(ptr noundef %2) #7
  ret i32 %.022
}